; Function Attrs: uwtable
define void @_ZN9grpc_core5Party4DropEt(ptr noundef nonnull align 8 dereferenceable(168) %this, i16 zeroext %0) unnamed_addr #13 align 2 personality ptr @__gxx_personality_v0 {
entry:
  %sync_.i = getelementptr inbounds i8, ptr %this, i64 16
  %1 = atomicrmw sub ptr %sync_.i, i64 1099511627776 acq_rel, align 8
  %and.i.i = and i64 %1, -1099511627776
  %cmp.i.i = icmp eq i64 %and.i.i, 1099511627776
  br i1 %cmp.i.i, label %_ZN9grpc_core21PartySyncUsingAtomics5UnrefEv.exit.i, label %_ZN9grpc_core5Party5UnrefEv.exit

_ZN9grpc_core21PartySyncUsingAtomics5UnrefEv.exit.i: ; preds = %entry
  %2 = atomicrmw or ptr %sync_.i, i64 38654705664 acq_rel, align 8
  %and.i.i.i = and i64 %2, 34359738368
  %cmp.i.i.i = icmp eq i64 %and.i.i.i, 0
  br i1 %cmp.i.i.i, label %if.then.i, label %_ZN9grpc_core5Party5UnrefEv.exit

if.then.i:                                        ; preds = %_ZN9grpc_core21PartySyncUsingAtomics5UnrefEv.exit.i
  br i1 icmp ne (ptr @_ZTHN9grpc_core8Activity19g_current_activity_E, ptr null), label %3, label %_ZTWN9grpc_core8Activity19g_current_activity_E.exit.i.i.i

3:                                                ; preds = %if.then.i
  tail call void @_ZTHN9grpc_core8Activity19g_current_activity_E()
  br label %_ZTWN9grpc_core8Activity19g_current_activity_E.exit.i.i.i

_ZTWN9grpc_core8Activity19g_current_activity_E.exit.i.i.i: ; preds = %3, %if.then.i
  %4 = tail call noundef align 8 ptr @llvm.threadlocal.address.p0(ptr align 8 @_ZN9grpc_core8Activity19g_current_activity_E)
  %5 = load ptr, ptr %4, align 8
  br i1 icmp ne (ptr @_ZTHN9grpc_core8Activity19g_current_activity_E, ptr null), label %6, label %_ZN9grpc_core8Activity14ScopedActivityC2EPS0_.exit.i.i

6:                                                ; preds = %_ZTWN9grpc_core8Activity19g_current_activity_E.exit.i.i.i
  tail call void @_ZTHN9grpc_core8Activity19g_current_activity_E()
  br label %_ZN9grpc_core8Activity14ScopedActivityC2EPS0_.exit.i.i

_ZN9grpc_core8Activity14ScopedActivityC2EPS0_.exit.i.i: ; preds = %6, %_ZTWN9grpc_core8Activity19g_current_activity_E.exit.i.i.i
  store ptr %this, ptr %4, align 8
  %vtable.i.i = load ptr, ptr %this, align 8
  %vfn.i.i = getelementptr inbounds i8, ptr %vtable.i.i, i64 80
  %7 = load ptr, ptr %vfn.i.i, align 8
  invoke void %7(ptr noundef nonnull align 8 dereferenceable(168) %this)
          to label %invoke.cont.i.i unwind label %lpad.i.i

invoke.cont.i.i:                                  ; preds = %_ZN9grpc_core8Activity14ScopedActivityC2EPS0_.exit.i.i
  br i1 icmp ne (ptr @_ZTHN9grpc_core8Activity19g_current_activity_E, ptr null), label %8, label %_ZN9grpc_core5Party11PartyIsOverEv.exit.i

8:                                                ; preds = %invoke.cont.i.i
  tail call void @_ZTHN9grpc_core8Activity19g_current_activity_E() #26
  br label %_ZN9grpc_core5Party11PartyIsOverEv.exit.i

lpad.i.i:                                         ; preds = %_ZN9grpc_core8Activity14ScopedActivityC2EPS0_.exit.i.i
  %9 = landingpad { ptr, i32 }
          cleanup
  br i1 icmp ne (ptr @_ZTHN9grpc_core8Activity19g_current_activity_E, ptr null), label %10, label %_ZN9grpc_core8Activity14ScopedActivityD2Ev.exit3.i.i

10:                                               ; preds = %lpad.i.i
  tail call void @_ZTHN9grpc_core8Activity19g_current_activity_E() #26
  br label %_ZN9grpc_core8Activity14ScopedActivityD2Ev.exit3.i.i

_ZN9grpc_core8Activity14ScopedActivityD2Ev.exit3.i.i: ; preds = %10, %lpad.i.i
  store ptr %5, ptr %4, align 8
  resume { ptr, i32 } %9

_ZN9grpc_core5Party11PartyIsOverEv.exit.i:        ; preds = %8, %invoke.cont.i.i
  store ptr %5, ptr %4, align 8
  br label %_ZN9grpc_core5Party5UnrefEv.exit

_ZN9grpc_core5Party5UnrefEv.exit:                 ; preds = %entry, %_ZN9grpc_core21PartySyncUsingAtomics5UnrefEv.exit.i, %_ZN9grpc_core5Party11PartyIsOverEv.exit.i
  ret void
}